target datalayout = "e-m:e-p270:32:32-p271:32:32-p272:64:64-i64:64-i128:128-f80:128-n8:16:32:64-S128"
target triple = "x86_64-pc-linux-gnu"

%struct.EVP_CAMELLIA_KEY = type { %struct.camellia_key_st, ptr, %union.anon.0 }
%struct.camellia_key_st = type { %union.anon, i32 }
%union.anon = type { double, [264 x i8] }
%union.anon.0 = type { ptr }
%struct.evp_cipher_ctx_st = type { ptr, ptr, i32, i32, [16 x i8], [16 x i8], [32 x i8], i32, ptr, i32, i32, i64, ptr, i32, i32, [32 x i8], i64, ptr, ptr }

; Function Attrs: nounwind uwtable
define internal i32 @camellia_cbc_cipher(ptr noundef %0, ptr noundef %1, ptr noundef %2, i64 noundef %3) #0 {
  %5 = alloca ptr, align 8
  %6 = alloca ptr, align 8
  %7 = alloca ptr, align 8
  %8 = alloca i64, align 8
  %9 = alloca ptr, align 8
  store ptr %0, ptr %5, align 8, !tbaa !3
  store ptr %1, ptr %6, align 8, !tbaa !8
  store ptr %2, ptr %7, align 8, !tbaa !8
  store i64 %3, ptr %8, align 8, !tbaa !17
  call void @llvm.lifetime.start.p0(i64 8, ptr %9) #3
  %10 = load ptr, ptr %5, align 8, !tbaa !3
  %11 = call ptr @EVP_CIPHER_CTX_get_cipher_data(ptr noundef %10)
  store ptr %11, ptr %9, align 8, !tbaa !12
  %12 = load ptr, ptr %9, align 8, !tbaa !12
  %13 = getelementptr inbounds nuw %struct.EVP_CAMELLIA_KEY, ptr %12, i32 0, i32 2
  %14 = load ptr, ptr %13, align 8, !tbaa !16
  %15 = icmp ne ptr %14, null
  br i1 %15, label %16, label %30

16:                                               ; preds = %4
  %17 = load ptr, ptr %9, align 8, !tbaa !12
  %18 = getelementptr inbounds nuw %struct.EVP_CAMELLIA_KEY, ptr %17, i32 0, i32 2
  %19 = load ptr, ptr %18, align 8, !tbaa !16
  %20 = load ptr, ptr %7, align 8, !tbaa !8
  %21 = load ptr, ptr %6, align 8, !tbaa !8
  %22 = load i64, ptr %8, align 8, !tbaa !17
  %23 = load ptr, ptr %9, align 8, !tbaa !12
  %24 = getelementptr inbounds nuw %struct.EVP_CAMELLIA_KEY, ptr %23, i32 0, i32 0
  %25 = load ptr, ptr %5, align 8, !tbaa !3
  %26 = getelementptr inbounds nuw %struct.evp_cipher_ctx_st, ptr %25, i32 0, i32 5
  %27 = getelementptr inbounds [16 x i8], ptr %26, i64 0, i64 0
  %28 = load ptr, ptr %5, align 8, !tbaa !3
  %29 = call i32 @EVP_CIPHER_CTX_is_encrypting(ptr noundef %28)
  call void %19(ptr noundef %20, ptr noundef %21, i64 noundef %22, ptr noundef %24, ptr noundef %27, i32 noundef %29)
  br label %59

30:                                               ; preds = %4
  %31 = load ptr, ptr %5, align 8, !tbaa !3
  %32 = call i32 @EVP_CIPHER_CTX_is_encrypting(ptr noundef %31)
  %33 = icmp ne i32 %32, 0
  br i1 %33, label %34, label %46

34:                                               ; preds = %30
  %35 = load ptr, ptr %7, align 8, !tbaa !8
  %36 = load ptr, ptr %6, align 8, !tbaa !8
  %37 = load i64, ptr %8, align 8, !tbaa !17
  %38 = load ptr, ptr %9, align 8, !tbaa !12
  %39 = getelementptr inbounds nuw %struct.EVP_CAMELLIA_KEY, ptr %38, i32 0, i32 0
  %40 = load ptr, ptr %5, align 8, !tbaa !3
  %41 = getelementptr inbounds nuw %struct.evp_cipher_ctx_st, ptr %40, i32 0, i32 5
  %42 = getelementptr inbounds [16 x i8], ptr %41, i64 0, i64 0
  %43 = load ptr, ptr %9, align 8, !tbaa !12
  %44 = getelementptr inbounds nuw %struct.EVP_CAMELLIA_KEY, ptr %43, i32 0, i32 1
  %45 = load ptr, ptr %44, align 8, !tbaa !13
  call void @CRYPTO_cbc128_encrypt(ptr noundef %35, ptr noundef %36, i64 noundef %37, ptr noundef %39, ptr noundef %42, ptr noundef %45)
  br label %58

46:                                               ; preds = %30
  %47 = load ptr, ptr %7, align 8, !tbaa !8
  %48 = load ptr, ptr %6, align 8, !tbaa !8
  %49 = load i64, ptr %8, align 8, !tbaa !17
  %50 = load ptr, ptr %9, align 8, !tbaa !12
  %51 = getelementptr inbounds nuw %struct.EVP_CAMELLIA_KEY, ptr %50, i32 0, i32 0
  %52 = load ptr, ptr %5, align 8, !tbaa !3
  %53 = getelementptr inbounds nuw %struct.evp_cipher_ctx_st, ptr %52, i32 0, i32 5
  %54 = getelementptr inbounds [16 x i8], ptr %53, i64 0, i64 0
  %55 = load ptr, ptr %9, align 8, !tbaa !12
  %56 = getelementptr inbounds nuw %struct.EVP_CAMELLIA_KEY, ptr %55, i32 0, i32 1
  %57 = load ptr, ptr %56, align 8, !tbaa !13
  call void @CRYPTO_cbc128_decrypt(ptr noundef %47, ptr noundef %48, i64 noundef %49, ptr noundef %51, ptr noundef %54, ptr noundef %57)
  br label %58

58:                                               ; preds = %46, %34
  br label %59

59:                                               ; preds = %58, %16
  call void @llvm.lifetime.end.p0(i64 8, ptr %9) #3
  ret i32 1
}